target datalayout = "e-m:e-p270:32:32-p271:32:32-p272:64:64-i64:64-i128:128-f80:128-n8:16:32:64-S128"
target triple = "x86_64-pc-linux-gnu"

%struct.ARKodeMRIStepMemRec = type { ptr, ptr, i32, i32, i32, i32, i32, ptr, ptr, i32, i32, i32, ptr, i32, i32, i32, i32, i32, ptr, ptr, ptr, ptr, ptr, ptr, ptr, i32, ptr, i32, ptr, double, double, double, double, i32, double, double, double, double, double, double, i32, i64, i32, i32, i32, ptr, ptr, ptr, ptr, ptr, ptr, ptr, ptr, ptr, double, double, double, i64, i64, i64, i64, i64, i64, i32, i32, i32, double, double, ptr, i32, ptr, ptr }

; Function Attrs: nounwind uwtable
define void @mriStep_ApplyForcing(ptr noundef %0, double noundef %1, double noundef %2, ptr noundef %3) #0 {
  %5 = alloca ptr, align 8
  %6 = alloca double, align 8
  %7 = alloca double, align 8
  %8 = alloca ptr, align 8
  %9 = alloca double, align 8
  %10 = alloca double, align 8
  %11 = alloca i32, align 4
  store ptr %0, ptr %5, align 8, !tbaa !19
  store double %1, ptr %6, align 8, !tbaa !7
  store double %2, ptr %7, align 8, !tbaa !7
  store ptr %3, ptr %8, align 8, !tbaa !128
  call void @llvm.lifetime.start.p0(i64 8, ptr %9) #8
  call void @llvm.lifetime.start.p0(i64 8, ptr %10) #8
  call void @llvm.lifetime.start.p0(i64 4, ptr %11) #8
  %12 = load double, ptr %7, align 8, !tbaa !7
  %13 = load ptr, ptr %5, align 8, !tbaa !19
  %14 = getelementptr inbounds nuw %struct.ARKodeMRIStepMemRec, ptr %13, i32 0, i32 70
  %15 = load ptr, ptr %14, align 8, !tbaa !103
  %16 = load ptr, ptr %8, align 8, !tbaa !128
  %17 = load i32, ptr %16, align 4, !tbaa !15
  %18 = sext i32 %17 to i64
  %19 = getelementptr inbounds double, ptr %15, i64 %18
  store double %12, ptr %19, align 8, !tbaa !7
  %20 = load ptr, ptr %5, align 8, !tbaa !19
  %21 = getelementptr inbounds nuw %struct.ARKodeMRIStepMemRec, ptr %20, i32 0, i32 68
  %22 = load ptr, ptr %21, align 8, !tbaa !112
  %23 = getelementptr inbounds ptr, ptr %22, i64 0
  %24 = load ptr, ptr %23, align 8, !tbaa !9
  %25 = load ptr, ptr %5, align 8, !tbaa !19
  %26 = getelementptr inbounds nuw %struct.ARKodeMRIStepMemRec, ptr %25, i32 0, i32 71
  %27 = load ptr, ptr %26, align 8, !tbaa !104
  %28 = load ptr, ptr %8, align 8, !tbaa !128
  %29 = load i32, ptr %28, align 4, !tbaa !15
  %30 = sext i32 %29 to i64
  %31 = getelementptr inbounds ptr, ptr %27, i64 %30
  store ptr %24, ptr %31, align 8, !tbaa !9
  %32 = load ptr, ptr %8, align 8, !tbaa !128
  %33 = load i32, ptr %32, align 4, !tbaa !15
  %34 = add nsw i32 %33, 1
  store i32 %34, ptr %32, align 4, !tbaa !15
  %35 = load double, ptr %6, align 8, !tbaa !7
  %36 = load ptr, ptr %5, align 8, !tbaa !19
  %37 = getelementptr inbounds nuw %struct.ARKodeMRIStepMemRec, ptr %36, i32 0, i32 66
  %38 = load double, ptr %37, align 8, !tbaa !217
  %39 = fsub double %35, %38
  %40 = load ptr, ptr %5, align 8, !tbaa !19
  %41 = getelementptr inbounds nuw %struct.ARKodeMRIStepMemRec, ptr %40, i32 0, i32 67
  %42 = load double, ptr %41, align 8, !tbaa !218
  %43 = fdiv double %39, %42
  store double %43, ptr %9, align 8, !tbaa !7
  %44 = load double, ptr %9, align 8, !tbaa !7
  store double %44, ptr %10, align 8, !tbaa !7
  store i32 1, ptr %11, align 4, !tbaa !15
  br label %45

45:                                               ; preds = %82, %4
  %46 = load i32, ptr %11, align 4, !tbaa !15
  %47 = load ptr, ptr %5, align 8, !tbaa !19
  %48 = getelementptr inbounds nuw %struct.ARKodeMRIStepMemRec, ptr %47, i32 0, i32 69
  %49 = load i32, ptr %48, align 8, !tbaa !113
  %50 = icmp slt i32 %46, %49
  br i1 %50, label %51, label %85

51:                                               ; preds = %45
  %52 = load double, ptr %7, align 8, !tbaa !7
  %53 = load double, ptr %10, align 8, !tbaa !7
  %54 = fmul double %52, %53
  %55 = load ptr, ptr %5, align 8, !tbaa !19
  %56 = getelementptr inbounds nuw %struct.ARKodeMRIStepMemRec, ptr %55, i32 0, i32 70
  %57 = load ptr, ptr %56, align 8, !tbaa !103
  %58 = load ptr, ptr %8, align 8, !tbaa !128
  %59 = load i32, ptr %58, align 4, !tbaa !15
  %60 = sext i32 %59 to i64
  %61 = getelementptr inbounds double, ptr %57, i64 %60
  store double %54, ptr %61, align 8, !tbaa !7
  %62 = load ptr, ptr %5, align 8, !tbaa !19
  %63 = getelementptr inbounds nuw %struct.ARKodeMRIStepMemRec, ptr %62, i32 0, i32 68
  %64 = load ptr, ptr %63, align 8, !tbaa !112
  %65 = load i32, ptr %11, align 4, !tbaa !15
  %66 = sext i32 %65 to i64
  %67 = getelementptr inbounds ptr, ptr %64, i64 %66
  %68 = load ptr, ptr %67, align 8, !tbaa !9
  %69 = load ptr, ptr %5, align 8, !tbaa !19
  %70 = getelementptr inbounds nuw %struct.ARKodeMRIStepMemRec, ptr %69, i32 0, i32 71
  %71 = load ptr, ptr %70, align 8, !tbaa !104
  %72 = load ptr, ptr %8, align 8, !tbaa !128
  %73 = load i32, ptr %72, align 4, !tbaa !15
  %74 = sext i32 %73 to i64
  %75 = getelementptr inbounds ptr, ptr %71, i64 %74
  store ptr %68, ptr %75, align 8, !tbaa !9
  %76 = load double, ptr %9, align 8, !tbaa !7
  %77 = load double, ptr %10, align 8, !tbaa !7
  %78 = fmul double %77, %76
  store double %78, ptr %10, align 8, !tbaa !7
  %79 = load ptr, ptr %8, align 8, !tbaa !128
  %80 = load i32, ptr %79, align 4, !tbaa !15
  %81 = add nsw i32 %80, 1
  store i32 %81, ptr %79, align 4, !tbaa !15
  br label %82

82:                                               ; preds = %51
  %83 = load i32, ptr %11, align 4, !tbaa !15
  %84 = add nsw i32 %83, 1
  store i32 %84, ptr %11, align 4, !tbaa !15
  br label %45

85:                                               ; preds = %45
  call void @llvm.lifetime.end.p0(i64 4, ptr %11) #8
  call void @llvm.lifetime.end.p0(i64 8, ptr %10) #8
  call void @llvm.lifetime.end.p0(i64 8, ptr %9) #8
  ret void
}