; Function Attrs: nofree norecurse nosync nounwind memory(readwrite, inaccessiblemem: none) uwtable
define void @mriStep_ApplyForcing(ptr noundef readonly captures(none) %0, double noundef %1, double noundef %2, ptr noundef captures(none) %3) local_unnamed_addr #9 {
  %5 = getelementptr inbounds nuw i8, ptr %0, i64 504
  %6 = load ptr, ptr %5, align 8, !tbaa !93
  %7 = load i32, ptr %3, align 4, !tbaa !119
  %8 = sext i32 %7 to i64
  %9 = getelementptr inbounds double, ptr %6, i64 %8
  store double %2, ptr %9, align 8, !tbaa !115
  %10 = getelementptr inbounds nuw i8, ptr %0, i64 488
  %11 = load ptr, ptr %10, align 8, !tbaa !100
  %12 = load ptr, ptr %11, align 8, !tbaa !167
  %13 = getelementptr inbounds nuw i8, ptr %0, i64 512
  %14 = load ptr, ptr %13, align 8, !tbaa !94
  %15 = getelementptr inbounds ptr, ptr %14, i64 %8
  store ptr %12, ptr %15, align 8, !tbaa !167
  %16 = add nsw i32 %7, 1
  store i32 %16, ptr %3, align 4, !tbaa !119
  %17 = getelementptr inbounds nuw i8, ptr %0, i64 472
  %18 = load double, ptr %17, align 8, !tbaa !188
  %19 = fsub double %1, %18
  %20 = getelementptr inbounds nuw i8, ptr %0, i64 480
  %21 = load double, ptr %20, align 8, !tbaa !189
  %22 = fdiv double %19, %21
  %23 = getelementptr inbounds nuw i8, ptr %0, i64 496
  %24 = load i32, ptr %23, align 8, !tbaa !101
  %25 = icmp sgt i32 %24, 1
  br i1 %25, label %.lr.ph, label %._crit_edge

.lr.ph:                                           ; preds = %4, %.lr.ph
  %26 = phi i32 [ %34, %.lr.ph ], [ %16, %4 ]
  %indvars.iv = phi i64 [ %indvars.iv.next, %.lr.ph ], [ 1, %4 ]
  %.02425 = phi double [ %33, %.lr.ph ], [ %22, %4 ]
  %27 = fmul double %2, %.02425
  %28 = sext i32 %26 to i64
  %29 = getelementptr inbounds double, ptr %6, i64 %28
  store double %27, ptr %29, align 8, !tbaa !115
  %30 = getelementptr inbounds nuw ptr, ptr %11, i64 %indvars.iv
  %31 = load ptr, ptr %30, align 8, !tbaa !167
  %32 = getelementptr inbounds ptr, ptr %14, i64 %28
  store ptr %31, ptr %32, align 8, !tbaa !167
  %33 = fmul double %22, %.02425
  %34 = add nsw i32 %26, 1
  store i32 %34, ptr %3, align 4, !tbaa !119
  %indvars.iv.next = add nuw nsw i64 %indvars.iv, 1
  %35 = load i32, ptr %23, align 8, !tbaa !101
  %36 = sext i32 %35 to i64
  %37 = icmp slt i64 %indvars.iv.next, %36
  br i1 %37, label %.lr.ph, label %._crit_edge

._crit_edge:                                      ; preds = %.lr.ph, %4
  ret void
}